(dp1
I1
(lp2
I0
aI1
aS'positive'
p3
asI2
(lp4
I2
aI3
aS'negative'
p5
asI3
(lp6
I4
aI5
ag3
asI4
(lp7
I6
aI7
ag5
asI5
(lp8
I8
aI9
ag3
asI6
(lp9
I10
aI11
ag5
asI7
(lp10
I12
aF0
aS'vol_ind'
p11
asI8
(lp12
I13
aF0
ag11
as.